target datalayout = "e-m:e-p270:32:32-p271:32:32-p272:64:64-i64:64-i128:128-f80:128-n8:16:32:64-S128"
target triple = "x86_64-pc-linux-gnu"

%"struct.dmg_fp::Bigint" = type { ptr, i32, i32, i32, i32, [1 x i32] }

@_ZN6dmg_fpL8freelistE = internal global [8 x ptr] zeroinitializer, align 16
@_ZL9pmem_next = internal global ptr @_ZL11private_mem, align 8
@_ZL11private_mem = internal global [288 x double] zeroinitializer, align 16
@_ZZN6dmg_fpL8pow5multEPNS_6BigintEiE3p05 = internal global [3 x i32] [i32 5, i32 25, i32 125], align 4
@_ZN6dmg_fpL3p5sE = internal global ptr null, align 8

; Function Attrs: mustprogress nounwind uwtable
define internal noundef ptr @_ZN6dmg_fpL6BallocEi(i32 noundef %0) #2 {
  %2 = alloca i32, align 4
  %3 = alloca i32, align 4
  %4 = alloca ptr, align 8
  %5 = alloca i32, align 4
  store i32 %0, ptr %2, align 4, !tbaa !14
  call void @llvm.lifetime.start.p0(i64 4, ptr %3) #9
  call void @llvm.lifetime.start.p0(i64 8, ptr %4) #9
  call void @llvm.lifetime.start.p0(i64 4, ptr %5) #9
  %6 = load i32, ptr %2, align 4, !tbaa !14
  %7 = icmp sle i32 %6, 7
  br i1 %7, label %8, label %25

8:                                                ; preds = %1
  %9 = load i32, ptr %2, align 4, !tbaa !14
  %10 = sext i32 %9 to i64
  %11 = getelementptr inbounds [8 x ptr], ptr @_ZN6dmg_fpL8freelistE, i64 0, i64 %10
  %12 = load ptr, ptr %11, align 8, !tbaa !30
  %13 = icmp ne ptr %12, null
  br i1 %13, label %14, label %25

14:                                               ; preds = %8
  %15 = load i32, ptr %2, align 4, !tbaa !14
  %16 = sext i32 %15 to i64
  %17 = getelementptr inbounds [8 x ptr], ptr @_ZN6dmg_fpL8freelistE, i64 0, i64 %16
  %18 = load ptr, ptr %17, align 8, !tbaa !30
  store ptr %18, ptr %4, align 8, !tbaa !30
  %19 = load ptr, ptr %4, align 8, !tbaa !30
  %20 = getelementptr inbounds nuw %"struct.dmg_fp::Bigint", ptr %19, i32 0, i32 0
  %21 = load ptr, ptr %20, align 8, !tbaa !54
  %22 = load i32, ptr %2, align 4, !tbaa !14
  %23 = sext i32 %22 to i64
  %24 = getelementptr inbounds [8 x ptr], ptr @_ZN6dmg_fpL8freelistE, i64 0, i64 %23
  store ptr %21, ptr %24, align 8, !tbaa !30
  br label %66

25:                                               ; preds = %8, %1
  %26 = load i32, ptr %2, align 4, !tbaa !14
  %27 = shl i32 1, %26
  store i32 %27, ptr %3, align 4, !tbaa !14
  %28 = load i32, ptr %3, align 4, !tbaa !14
  %29 = sub nsw i32 %28, 1
  %30 = sext i32 %29 to i64
  %31 = mul i64 %30, 4
  %32 = add i64 32, %31
  %33 = add i64 %32, 8
  %34 = sub i64 %33, 1
  %35 = udiv i64 %34, 8
  %36 = trunc i64 %35 to i32
  store i32 %36, ptr %5, align 4, !tbaa !14
  %37 = load i32, ptr %2, align 4, !tbaa !14
  %38 = icmp sle i32 %37, 7
  br i1 %38, label %39, label %54

39:                                               ; preds = %25
  %40 = load ptr, ptr @_ZL9pmem_next, align 8, !tbaa !55
  %41 = ptrtoint ptr %40 to i64
  %42 = sub i64 %41, ptrtoint (ptr @_ZL11private_mem to i64)
  %43 = sdiv exact i64 %42, 8
  %44 = load i32, ptr %5, align 4, !tbaa !14
  %45 = zext i32 %44 to i64
  %46 = add nsw i64 %43, %45
  %47 = icmp sle i64 %46, 288
  br i1 %47, label %48, label %54

48:                                               ; preds = %39
  %49 = load ptr, ptr @_ZL9pmem_next, align 8, !tbaa !55
  store ptr %49, ptr %4, align 8, !tbaa !30
  %50 = load i32, ptr %5, align 4, !tbaa !14
  %51 = load ptr, ptr @_ZL9pmem_next, align 8, !tbaa !55
  %52 = zext i32 %50 to i64
  %53 = getelementptr inbounds nuw double, ptr %51, i64 %52
  store ptr %53, ptr @_ZL9pmem_next, align 8, !tbaa !55
  br label %59

54:                                               ; preds = %39, %25
  %55 = load i32, ptr %5, align 4, !tbaa !14
  %56 = zext i32 %55 to i64
  %57 = mul i64 %56, 8
  %58 = call noalias ptr @malloc(i64 noundef %57) #11
  store ptr %58, ptr %4, align 8, !tbaa !30
  br label %59

59:                                               ; preds = %54, %48
  %60 = load i32, ptr %2, align 4, !tbaa !14
  %61 = load ptr, ptr %4, align 8, !tbaa !30
  %62 = getelementptr inbounds nuw %"struct.dmg_fp::Bigint", ptr %61, i32 0, i32 1
  store i32 %60, ptr %62, align 8, !tbaa !40
  %63 = load i32, ptr %3, align 4, !tbaa !14
  %64 = load ptr, ptr %4, align 8, !tbaa !30
  %65 = getelementptr inbounds nuw %"struct.dmg_fp::Bigint", ptr %64, i32 0, i32 2
  store i32 %63, ptr %65, align 4, !tbaa !57
  br label %66

66:                                               ; preds = %59, %14
  %67 = load ptr, ptr %4, align 8, !tbaa !30
  %68 = getelementptr inbounds nuw %"struct.dmg_fp::Bigint", ptr %67, i32 0, i32 4
  store i32 0, ptr %68, align 4, !tbaa !42
  %69 = load ptr, ptr %4, align 8, !tbaa !30
  %70 = getelementptr inbounds nuw %"struct.dmg_fp::Bigint", ptr %69, i32 0, i32 3
  store i32 0, ptr %70, align 8, !tbaa !43
  %71 = load ptr, ptr %4, align 8, !tbaa !30
  call void @llvm.lifetime.end.p0(i64 4, ptr %5) #9
  call void @llvm.lifetime.end.p0(i64 8, ptr %4) #9
  call void @llvm.lifetime.end.p0(i64 4, ptr %3) #9
  ret ptr %71
}

; Function Attrs: mustprogress nounwind uwtable
define internal void @_ZN6dmg_fpL5BfreeEPNS_6BigintE(ptr noundef %0) #2 {
  %2 = alloca ptr, align 8
  store ptr %0, ptr %2, align 8, !tbaa !30
  %3 = load ptr, ptr %2, align 8, !tbaa !30
  %4 = icmp ne ptr %3, null
  br i1 %4, label %5, label %28

5:                                                ; preds = %1
  %6 = load ptr, ptr %2, align 8, !tbaa !30
  %7 = getelementptr inbounds nuw %"struct.dmg_fp::Bigint", ptr %6, i32 0, i32 1
  %8 = load i32, ptr %7, align 8, !tbaa !40
  %9 = icmp sgt i32 %8, 7
  br i1 %9, label %10, label %12

10:                                               ; preds = %5
  %11 = load ptr, ptr %2, align 8, !tbaa !30
  call void @free(ptr noundef %11) #9
  br label %27

12:                                               ; preds = %5
  %13 = load ptr, ptr %2, align 8, !tbaa !30
  %14 = getelementptr inbounds nuw %"struct.dmg_fp::Bigint", ptr %13, i32 0, i32 1
  %15 = load i32, ptr %14, align 8, !tbaa !40
  %16 = sext i32 %15 to i64
  %17 = getelementptr inbounds [8 x ptr], ptr @_ZN6dmg_fpL8freelistE, i64 0, i64 %16
  %18 = load ptr, ptr %17, align 8, !tbaa !30
  %19 = load ptr, ptr %2, align 8, !tbaa !30
  %20 = getelementptr inbounds nuw %"struct.dmg_fp::Bigint", ptr %19, i32 0, i32 0
  store ptr %18, ptr %20, align 8, !tbaa !54
  %21 = load ptr, ptr %2, align 8, !tbaa !30
  %22 = load ptr, ptr %2, align 8, !tbaa !30
  %23 = getelementptr inbounds nuw %"struct.dmg_fp::Bigint", ptr %22, i32 0, i32 1
  %24 = load i32, ptr %23, align 8, !tbaa !40
  %25 = sext i32 %24 to i64
  %26 = getelementptr inbounds [8 x ptr], ptr @_ZN6dmg_fpL8freelistE, i64 0, i64 %25
  store ptr %21, ptr %26, align 8, !tbaa !30
  br label %27

27:                                               ; preds = %12, %10
  br label %28

28:                                               ; preds = %27, %1
  ret void
}

; Function Attrs: mustprogress nounwind uwtable
define internal noundef ptr @_ZN6dmg_fpL3i2bEi(i32 noundef %0) #2 {
  %2 = alloca i32, align 4
  %3 = alloca ptr, align 8
  store i32 %0, ptr %2, align 4, !tbaa !14
  call void @llvm.lifetime.start.p0(i64 8, ptr %3) #9
  %4 = call noundef ptr @_ZN6dmg_fpL6BallocEi(i32 noundef 1)
  store ptr %4, ptr %3, align 8, !tbaa !30
  %5 = load i32, ptr %2, align 4, !tbaa !14
  %6 = load ptr, ptr %3, align 8, !tbaa !30
  %7 = getelementptr inbounds nuw %"struct.dmg_fp::Bigint", ptr %6, i32 0, i32 5
  %8 = getelementptr inbounds [1 x i32], ptr %7, i64 0, i64 0
  store i32 %5, ptr %8, align 8, !tbaa !14
  %9 = load ptr, ptr %3, align 8, !tbaa !30
  %10 = getelementptr inbounds nuw %"struct.dmg_fp::Bigint", ptr %9, i32 0, i32 4
  store i32 1, ptr %10, align 4, !tbaa !42
  %11 = load ptr, ptr %3, align 8, !tbaa !30
  call void @llvm.lifetime.end.p0(i64 8, ptr %3) #9
  ret ptr %11
}

; Function Attrs: mustprogress uwtable
define internal noundef ptr @_ZN6dmg_fpL8pow5multEPNS_6BigintEi(ptr noundef %0, i32 noundef %1) #0 {
  %3 = alloca ptr, align 8
  %4 = alloca ptr, align 8
  %5 = alloca i32, align 4
  %6 = alloca ptr, align 8
  %7 = alloca ptr, align 8
  %8 = alloca ptr, align 8
  %9 = alloca i32, align 4
  %10 = alloca i32, align 4
  store ptr %0, ptr %4, align 8, !tbaa !30
  store i32 %1, ptr %5, align 4, !tbaa !14
  call void @llvm.lifetime.start.p0(i64 8, ptr %6) #9
  call void @llvm.lifetime.start.p0(i64 8, ptr %7) #9
  call void @llvm.lifetime.start.p0(i64 8, ptr %8) #9
  call void @llvm.lifetime.start.p0(i64 4, ptr %9) #9
  %11 = load i32, ptr %5, align 4, !tbaa !14
  %12 = and i32 %11, 3
  store i32 %12, ptr %9, align 4, !tbaa !14
  %13 = load i32, ptr %9, align 4, !tbaa !14
  %14 = icmp ne i32 %13, 0
  br i1 %14, label %15, label %23

15:                                               ; preds = %2
  %16 = load ptr, ptr %4, align 8, !tbaa !30
  %17 = load i32, ptr %9, align 4, !tbaa !14
  %18 = sub nsw i32 %17, 1
  %19 = sext i32 %18 to i64
  %20 = getelementptr inbounds [3 x i32], ptr @_ZZN6dmg_fpL8pow5multEPNS_6BigintEiE3p05, i64 0, i64 %19
  %21 = load i32, ptr %20, align 4, !tbaa !14
  %22 = call noundef ptr @_ZN6dmg_fpL7multaddEPNS_6BigintEii(ptr noundef %16, i32 noundef %21, i32 noundef 0)
  store ptr %22, ptr %4, align 8, !tbaa !30
  br label %23

23:                                               ; preds = %15, %2
  %24 = load i32, ptr %5, align 4, !tbaa !14
  %25 = ashr i32 %24, 2
  store i32 %25, ptr %5, align 4, !tbaa !14
  %26 = icmp ne i32 %25, 0
  br i1 %26, label %29, label %27

27:                                               ; preds = %23
  %28 = load ptr, ptr %4, align 8, !tbaa !30
  store ptr %28, ptr %3, align 8
  store i32 1, ptr %10, align 4
  br label %71

29:                                               ; preds = %23
  %30 = load ptr, ptr @_ZN6dmg_fpL3p5sE, align 8, !tbaa !30
  store ptr %30, ptr %7, align 8, !tbaa !30
  %31 = load ptr, ptr %7, align 8, !tbaa !30
  %32 = icmp ne ptr %31, null
  br i1 %32, label %37, label %33

33:                                               ; preds = %29
  %34 = call noundef ptr @_ZN6dmg_fpL3i2bEi(i32 noundef 625)
  store ptr %34, ptr @_ZN6dmg_fpL3p5sE, align 8, !tbaa !30
  store ptr %34, ptr %7, align 8, !tbaa !30
  %35 = load ptr, ptr %7, align 8, !tbaa !30
  %36 = getelementptr inbounds nuw %"struct.dmg_fp::Bigint", ptr %35, i32 0, i32 0
  store ptr null, ptr %36, align 8, !tbaa !54
  br label %37

37:                                               ; preds = %33, %29
  br label %38

38:                                               ; preds = %67, %37
  %39 = load i32, ptr %5, align 4, !tbaa !14
  %40 = and i32 %39, 1
  %41 = icmp ne i32 %40, 0
  br i1 %41, label %42, label %48

42:                                               ; preds = %38
  %43 = load ptr, ptr %4, align 8, !tbaa !30
  %44 = load ptr, ptr %7, align 8, !tbaa !30
  %45 = call noundef ptr @_ZN6dmg_fpL4multEPNS_6BigintES1_(ptr noundef %43, ptr noundef %44)
  store ptr %45, ptr %6, align 8, !tbaa !30
  %46 = load ptr, ptr %4, align 8, !tbaa !30
  call void @_ZN6dmg_fpL5BfreeEPNS_6BigintE(ptr noundef %46)
  %47 = load ptr, ptr %6, align 8, !tbaa !30
  store ptr %47, ptr %4, align 8, !tbaa !30
  br label %48

48:                                               ; preds = %42, %38
  %49 = load i32, ptr %5, align 4, !tbaa !14
  %50 = ashr i32 %49, 1
  store i32 %50, ptr %5, align 4, !tbaa !14
  %51 = icmp ne i32 %50, 0
  br i1 %51, label %53, label %52

52:                                               ; preds = %48
  br label %69

53:                                               ; preds = %48
  %54 = load ptr, ptr %7, align 8, !tbaa !30
  %55 = getelementptr inbounds nuw %"struct.dmg_fp::Bigint", ptr %54, i32 0, i32 0
  %56 = load ptr, ptr %55, align 8, !tbaa !54
  store ptr %56, ptr %8, align 8, !tbaa !30
  %57 = load ptr, ptr %8, align 8, !tbaa !30
  %58 = icmp ne ptr %57, null
  br i1 %58, label %67, label %59

59:                                               ; preds = %53
  %60 = load ptr, ptr %7, align 8, !tbaa !30
  %61 = load ptr, ptr %7, align 8, !tbaa !30
  %62 = call noundef ptr @_ZN6dmg_fpL4multEPNS_6BigintES1_(ptr noundef %60, ptr noundef %61)
  %63 = load ptr, ptr %7, align 8, !tbaa !30
  %64 = getelementptr inbounds nuw %"struct.dmg_fp::Bigint", ptr %63, i32 0, i32 0
  store ptr %62, ptr %64, align 8, !tbaa !54
  store ptr %62, ptr %8, align 8, !tbaa !30
  %65 = load ptr, ptr %8, align 8, !tbaa !30
  %66 = getelementptr inbounds nuw %"struct.dmg_fp::Bigint", ptr %65, i32 0, i32 0
  store ptr null, ptr %66, align 8, !tbaa !54
  br label %67

67:                                               ; preds = %59, %53
  %68 = load ptr, ptr %8, align 8, !tbaa !30
  store ptr %68, ptr %7, align 8, !tbaa !30
  br label %38, !llvm.loop !60

69:                                               ; preds = %52
  %70 = load ptr, ptr %4, align 8, !tbaa !30
  store ptr %70, ptr %3, align 8
  store i32 1, ptr %10, align 4
  br label %71

71:                                               ; preds = %69, %27
  call void @llvm.lifetime.end.p0(i64 4, ptr %9) #9
  call void @llvm.lifetime.end.p0(i64 8, ptr %8) #9
  call void @llvm.lifetime.end.p0(i64 8, ptr %7) #9
  call void @llvm.lifetime.end.p0(i64 8, ptr %6) #9
  %72 = load ptr, ptr %3, align 8
  ret ptr %72
}