; Function Attrs: mustprogress nounwind uwtable
define internal fastcc noundef ptr @_ZN6dmg_fpL8pow5multEPNS_6BigintEi(ptr noundef %0, i32 noundef range(i32 1, -2147483648) %1) unnamed_addr #0 {
  %3 = and i32 %1, 3
  %.not = icmp eq i32 %3, 0
  br i1 %.not, label %10, label %4

4:                                                ; preds = %2
  %5 = add nsw i32 %3, -1
  %6 = zext nneg i32 %5 to i64
  %7 = getelementptr inbounds nuw [3 x i32], ptr @_ZZN6dmg_fpL8pow5multEPNS_6BigintEiE3p05, i64 0, i64 %6
  %8 = load i32, ptr %7, align 4, !tbaa !20
  %9 = tail call fastcc noundef ptr @_ZN6dmg_fpL7multaddEPNS_6BigintEii(ptr noundef %0, i32 noundef %8, i32 noundef 0)
  br label %10

10:                                               ; preds = %4, %2
  %.024 = phi ptr [ %9, %4 ], [ %0, %2 ]
  %11 = lshr i32 %1, 2
  %.not32 = icmp samesign ult i32 %1, 4
  br i1 %.not32, label %.loopexit, label %12

12:                                               ; preds = %10
  %13 = load ptr, ptr @_ZN6dmg_fpL3p5sE, align 8, !tbaa !28
  %.not33 = icmp eq ptr %13, null
  br i1 %.not33, label %14, label %.preheader

14:                                               ; preds = %12
  %15 = load ptr, ptr getelementptr inbounds nuw (i8, ptr @_ZN6dmg_fpL8freelistE, i64 8), align 8, !tbaa !28
  %.not.i.i = icmp eq ptr %15, null
  br i1 %.not.i.i, label %18, label %16

16:                                               ; preds = %14
  %17 = load ptr, ptr %15, align 8, !tbaa !30
  store ptr %17, ptr getelementptr inbounds nuw (i8, ptr @_ZN6dmg_fpL8freelistE, i64 8), align 8, !tbaa !28
  br label %_ZN6dmg_fpL3i2bEi.exit

18:                                               ; preds = %14
  %19 = load ptr, ptr @_ZL9pmem_next, align 8, !tbaa !32
  %20 = ptrtoint ptr %19 to i64
  %21 = sub i64 %20, ptrtoint (ptr @_ZL11private_mem to i64)
  %22 = icmp slt i64 %21, 2272
  br i1 %22, label %23, label %25

23:                                               ; preds = %18
  %24 = getelementptr inbounds nuw i8, ptr %19, i64 40
  store ptr %24, ptr @_ZL9pmem_next, align 8, !tbaa !32
  br label %27

25:                                               ; preds = %18
  %26 = tail call noalias dereferenceable_or_null(40) ptr @malloc(i64 noundef 40) #18
  br label %27

27:                                               ; preds = %25, %23
  %.1.i.i = phi ptr [ %19, %23 ], [ %26, %25 ]
  %28 = getelementptr inbounds nuw i8, ptr %.1.i.i, i64 8
  store i32 1, ptr %28, align 8, !tbaa !34
  %29 = getelementptr inbounds nuw i8, ptr %.1.i.i, i64 12
  store i32 2, ptr %29, align 4, !tbaa !35
  br label %_ZN6dmg_fpL3i2bEi.exit

_ZN6dmg_fpL3i2bEi.exit:                           ; preds = %16, %27
  %.0.i.i = phi ptr [ %15, %16 ], [ %.1.i.i, %27 ]
  %30 = getelementptr inbounds nuw i8, ptr %.0.i.i, i64 20
  %31 = getelementptr inbounds nuw i8, ptr %.0.i.i, i64 16
  store i32 0, ptr %31, align 8, !tbaa !36
  %32 = getelementptr inbounds nuw i8, ptr %.0.i.i, i64 24
  store i32 625, ptr %32, align 8, !tbaa !20
  store i32 1, ptr %30, align 4, !tbaa !37
  store ptr %.0.i.i, ptr @_ZN6dmg_fpL3p5sE, align 8, !tbaa !28
  br label %.sink.split

.sink.split:                                      ; preds = %_ZN6dmg_fpL3i2bEi.exit, %49
  %.sink = phi ptr [ %50, %49 ], [ %.0.i.i, %_ZN6dmg_fpL3i2bEi.exit ]
  %.026.ph = phi i32 [ %47, %49 ], [ %11, %_ZN6dmg_fpL3i2bEi.exit ]
  %.125.ph = phi ptr [ %.2, %49 ], [ %.024, %_ZN6dmg_fpL3i2bEi.exit ]
  store ptr null, ptr %.sink, align 8, !tbaa !30
  br label %.preheader

.preheader:                                       ; preds = %12, %.sink.split
  %.026.ph37 = phi i32 [ %.026.ph, %.sink.split ], [ %11, %12 ]
  %.125.ph38 = phi ptr [ %.125.ph, %.sink.split ], [ %.024, %12 ]
  %.1.ph = phi ptr [ %.sink, %.sink.split ], [ %13, %12 ]
  br label %33

33:                                               ; preds = %.preheader, %46
  %.026 = phi i32 [ %47, %46 ], [ %.026.ph37, %.preheader ]
  %.125 = phi ptr [ %.2, %46 ], [ %.125.ph38, %.preheader ]
  %.1 = phi ptr [ %48, %46 ], [ %.1.ph, %.preheader ]
  %34 = and i32 %.026, 1
  %.not34 = icmp eq i32 %34, 0
  br i1 %.not34, label %_ZN6dmg_fpL5BfreeEPNS_6BigintE.exit, label %35

35:                                               ; preds = %33
  %36 = tail call fastcc noundef ptr @_ZN6dmg_fpL4multEPNS_6BigintES1_(ptr noundef %.125, ptr noundef nonnull %.1)
  %.not.i = icmp eq ptr %.125, null
  br i1 %.not.i, label %_ZN6dmg_fpL5BfreeEPNS_6BigintE.exit, label %37

37:                                               ; preds = %35
  %38 = getelementptr inbounds nuw i8, ptr %.125, i64 8
  %39 = load i32, ptr %38, align 8, !tbaa !34
  %40 = icmp sgt i32 %39, 7
  br i1 %40, label %41, label %42

41:                                               ; preds = %37
  tail call void @free(ptr noundef nonnull %.125) #16
  br label %_ZN6dmg_fpL5BfreeEPNS_6BigintE.exit

42:                                               ; preds = %37
  %43 = sext i32 %39 to i64
  %44 = getelementptr inbounds [8 x ptr], ptr @_ZN6dmg_fpL8freelistE, i64 0, i64 %43
  %45 = load ptr, ptr %44, align 8, !tbaa !28
  store ptr %45, ptr %.125, align 8, !tbaa !30
  store ptr %.125, ptr %44, align 8, !tbaa !28
  br label %_ZN6dmg_fpL5BfreeEPNS_6BigintE.exit

_ZN6dmg_fpL5BfreeEPNS_6BigintE.exit:              ; preds = %42, %41, %35, %33
  %.2 = phi ptr [ %.125, %33 ], [ %36, %35 ], [ %36, %41 ], [ %36, %42 ]
  %.not35 = icmp samesign ult i32 %.026, 2
  br i1 %.not35, label %.loopexit, label %46

46:                                               ; preds = %_ZN6dmg_fpL5BfreeEPNS_6BigintE.exit
  %47 = lshr i32 %.026, 1
  %48 = load ptr, ptr %.1, align 8, !tbaa !30
  %.not36 = icmp eq ptr %48, null
  br i1 %.not36, label %49, label %33, !llvm.loop !48

49:                                               ; preds = %46
  %50 = tail call fastcc noundef ptr @_ZN6dmg_fpL4multEPNS_6BigintES1_(ptr noundef nonnull %.1, ptr noundef nonnull %.1)
  store ptr %50, ptr %.1, align 8, !tbaa !30
  br label %.sink.split, !llvm.loop !48

.loopexit:                                        ; preds = %_ZN6dmg_fpL5BfreeEPNS_6BigintE.exit, %10
  %.0 = phi ptr [ %.024, %10 ], [ %.2, %_ZN6dmg_fpL5BfreeEPNS_6BigintE.exit ]
  ret ptr %.0
}